target datalayout = "e-m:e-p270:32:32-p271:32:32-p272:64:64-i64:64-i128:128-f80:128-n8:16:32:64-S128"
target triple = "x86_64-pc-linux-gnu"

%struct.FFEBUR128State = type { i32, i32, i64, ptr }
%struct.FFEBUR128StateInternal = type { ptr, i64, i64, i64, ptr, i64, [5 x double], [5 x double], [5 x [5 x double]], ptr, ptr, i64, ptr, i64, ptr }

; Function Attrs: nounwind uwtable
define void @ff_ebur128_destroy(ptr noundef %0) #0 {
  %2 = alloca ptr, align 8
  store ptr %0, ptr %2, align 8, !tbaa !44
  %3 = load ptr, ptr %2, align 8, !tbaa !44
  %4 = load ptr, ptr %3, align 8, !tbaa !10
  %5 = getelementptr inbounds nuw %struct.FFEBUR128State, ptr %4, i32 0, i32 3
  %6 = load ptr, ptr %5, align 8, !tbaa !13
  %7 = getelementptr inbounds nuw %struct.FFEBUR128StateInternal, ptr %6, i32 0, i32 9
  %8 = load ptr, ptr %7, align 8, !tbaa !29
  call void @av_free(ptr noundef %8)
  %9 = load ptr, ptr %2, align 8, !tbaa !44
  %10 = load ptr, ptr %9, align 8, !tbaa !10
  %11 = getelementptr inbounds nuw %struct.FFEBUR128State, ptr %10, i32 0, i32 3
  %12 = load ptr, ptr %11, align 8, !tbaa !13
  %13 = getelementptr inbounds nuw %struct.FFEBUR128StateInternal, ptr %12, i32 0, i32 10
  %14 = load ptr, ptr %13, align 8, !tbaa !30
  call void @av_free(ptr noundef %14)
  %15 = load ptr, ptr %2, align 8, !tbaa !44
  %16 = load ptr, ptr %15, align 8, !tbaa !10
  %17 = getelementptr inbounds nuw %struct.FFEBUR128State, ptr %16, i32 0, i32 3
  %18 = load ptr, ptr %17, align 8, !tbaa !13
  %19 = getelementptr inbounds nuw %struct.FFEBUR128StateInternal, ptr %18, i32 0, i32 0
  %20 = load ptr, ptr %19, align 8, !tbaa !28
  call void @av_free(ptr noundef %20)
  %21 = load ptr, ptr %2, align 8, !tbaa !44
  %22 = load ptr, ptr %21, align 8, !tbaa !10
  %23 = getelementptr inbounds nuw %struct.FFEBUR128State, ptr %22, i32 0, i32 3
  %24 = load ptr, ptr %23, align 8, !tbaa !13
  %25 = getelementptr inbounds nuw %struct.FFEBUR128StateInternal, ptr %24, i32 0, i32 4
  %26 = load ptr, ptr %25, align 8, !tbaa !35
  call void @av_free(ptr noundef %26)
  %27 = load ptr, ptr %2, align 8, !tbaa !44
  %28 = load ptr, ptr %27, align 8, !tbaa !10
  %29 = getelementptr inbounds nuw %struct.FFEBUR128State, ptr %28, i32 0, i32 3
  %30 = load ptr, ptr %29, align 8, !tbaa !13
  %31 = getelementptr inbounds nuw %struct.FFEBUR128StateInternal, ptr %30, i32 0, i32 12
  %32 = load ptr, ptr %31, align 8, !tbaa !17
  call void @av_free(ptr noundef %32)
  %33 = load ptr, ptr %2, align 8, !tbaa !44
  %34 = load ptr, ptr %33, align 8, !tbaa !10
  %35 = getelementptr inbounds nuw %struct.FFEBUR128State, ptr %34, i32 0, i32 3
  %36 = load ptr, ptr %35, align 8, !tbaa !13
  %37 = getelementptr inbounds nuw %struct.FFEBUR128StateInternal, ptr %36, i32 0, i32 14
  %38 = load ptr, ptr %37, align 8, !tbaa !34
  call void @av_free(ptr noundef %38)
  %39 = load ptr, ptr %2, align 8, !tbaa !44
  %40 = load ptr, ptr %39, align 8, !tbaa !10
  %41 = getelementptr inbounds nuw %struct.FFEBUR128State, ptr %40, i32 0, i32 3
  %42 = load ptr, ptr %41, align 8, !tbaa !13
  call void @av_free(ptr noundef %42)
  %43 = load ptr, ptr %2, align 8, !tbaa !44
  %44 = load ptr, ptr %43, align 8, !tbaa !10
  call void @av_free(ptr noundef %44)
  %45 = load ptr, ptr %2, align 8, !tbaa !44
  store ptr null, ptr %45, align 8, !tbaa !10
  ret void
}