; Function Attrs: nounwind uwtable
define void @ff_ebur128_destroy(ptr noundef captures(none) %0) local_unnamed_addr #0 {
  %2 = load ptr, ptr %0, align 8, !tbaa !39
  %3 = getelementptr inbounds nuw i8, ptr %2, i64 16
  %4 = load ptr, ptr %3, align 8, !tbaa !4
  %5 = getelementptr inbounds nuw i8, ptr %4, i64 328
  %6 = load ptr, ptr %5, align 8, !tbaa !31
  tail call void @av_free(ptr noundef %6) #11
  %7 = load ptr, ptr %0, align 8, !tbaa !39
  %8 = getelementptr inbounds nuw i8, ptr %7, i64 16
  %9 = load ptr, ptr %8, align 8, !tbaa !4
  %10 = getelementptr inbounds nuw i8, ptr %9, i64 336
  %11 = load ptr, ptr %10, align 8, !tbaa !32
  tail call void @av_free(ptr noundef %11) #11
  %12 = load ptr, ptr %0, align 8, !tbaa !39
  %13 = getelementptr inbounds nuw i8, ptr %12, i64 16
  %14 = load ptr, ptr %13, align 8, !tbaa !4
  %15 = load ptr, ptr %14, align 8, !tbaa !28
  tail call void @av_free(ptr noundef %15) #11
  %16 = load ptr, ptr %0, align 8, !tbaa !39
  %17 = getelementptr inbounds nuw i8, ptr %16, i64 16
  %18 = load ptr, ptr %17, align 8, !tbaa !4
  %19 = getelementptr inbounds nuw i8, ptr %18, i64 32
  %20 = load ptr, ptr %19, align 8, !tbaa !13
  tail call void @av_free(ptr noundef %20) #11
  %21 = load ptr, ptr %0, align 8, !tbaa !39
  %22 = getelementptr inbounds nuw i8, ptr %21, i64 16
  %23 = load ptr, ptr %22, align 8, !tbaa !4
  %24 = getelementptr inbounds nuw i8, ptr %23, i64 352
  %25 = load ptr, ptr %24, align 8, !tbaa !22
  tail call void @av_free(ptr noundef %25) #11
  %26 = load ptr, ptr %0, align 8, !tbaa !39
  %27 = getelementptr inbounds nuw i8, ptr %26, i64 16
  %28 = load ptr, ptr %27, align 8, !tbaa !4
  %29 = getelementptr inbounds nuw i8, ptr %28, i64 368
  %30 = load ptr, ptr %29, align 8, !tbaa !36
  tail call void @av_free(ptr noundef %30) #11
  %31 = load ptr, ptr %0, align 8, !tbaa !39
  %32 = getelementptr inbounds nuw i8, ptr %31, i64 16
  %33 = load ptr, ptr %32, align 8, !tbaa !4
  tail call void @av_free(ptr noundef %33) #11
  %34 = load ptr, ptr %0, align 8, !tbaa !39
  tail call void @av_free(ptr noundef %34) #11
  store ptr null, ptr %0, align 8, !tbaa !39
  ret void
}